target datalayout = "e-m:e-p270:32:32-p271:32:32-p272:64:64-i64:64-i128:128-f80:128-n8:16:32:64-S128"
target triple = "x86_64-pc-linux-gnu"

%struct._object = type { %union.anon, ptr }
%union.anon = type { i64 }
%struct.pysqlite_Connection = type { %struct._object, ptr, ptr, i32, ptr, i32, i32, i32, i64, ptr, ptr, ptr, i32, ptr, ptr, ptr, ptr, ptr, ptr, ptr, ptr, ptr, ptr, ptr, ptr, ptr, ptr, ptr }
%struct.pysqlite_Blob = type { %struct._object, ptr, ptr, i32, ptr }
%struct.pysqlite_state = type { ptr, ptr, ptr, ptr, ptr, ptr, ptr, ptr, ptr, ptr, ptr, ptr, ptr, i32, i32, ptr, ptr, ptr, ptr, ptr, ptr, ptr, ptr, ptr, ptr, ptr, ptr, ptr, ptr }

@.str.11 = private unnamed_addr constant [33 x i8] c"Cannot operate on a closed blob.\00", align 1

; Function Attrs: nounwind uwtable
define internal i32 @check_blob(ptr noundef %0) #0 {
  %2 = alloca i32, align 4
  %3 = alloca ptr, align 8
  %4 = alloca ptr, align 8
  store ptr %0, ptr %3, align 8, !tbaa !3
  %5 = load ptr, ptr %3, align 8, !tbaa !3
  %6 = getelementptr inbounds nuw %struct.pysqlite_Blob, ptr %5, i32 0, i32 1
  %7 = load ptr, ptr %6, align 8, !tbaa !45
  %8 = call i32 @pysqlite_check_connection(ptr noundef %7)
  %9 = icmp ne i32 %8, 0
  br i1 %9, label %10, label %16

10:                                               ; preds = %1
  %11 = load ptr, ptr %3, align 8, !tbaa !3
  %12 = getelementptr inbounds nuw %struct.pysqlite_Blob, ptr %11, i32 0, i32 1
  %13 = load ptr, ptr %12, align 8, !tbaa !45
  %14 = call i32 @pysqlite_check_thread(ptr noundef %13)
  %15 = icmp ne i32 %14, 0
  br i1 %15, label %17, label %16

16:                                               ; preds = %10, %1
  store i32 0, ptr %2, align 4
  br label %32

17:                                               ; preds = %10
  %18 = load ptr, ptr %3, align 8, !tbaa !3
  %19 = getelementptr inbounds nuw %struct.pysqlite_Blob, ptr %18, i32 0, i32 2
  %20 = load ptr, ptr %19, align 8, !tbaa !25
  %21 = icmp eq ptr %20, null
  br i1 %21, label %22, label %31

22:                                               ; preds = %17
  call void @llvm.lifetime.start.p0(i64 8, ptr %4) #6
  %23 = load ptr, ptr %3, align 8, !tbaa !3
  %24 = getelementptr inbounds nuw %struct.pysqlite_Blob, ptr %23, i32 0, i32 1
  %25 = load ptr, ptr %24, align 8, !tbaa !45
  %26 = getelementptr inbounds nuw %struct.pysqlite_Connection, ptr %25, i32 0, i32 2
  %27 = load ptr, ptr %26, align 8, !tbaa !51
  store ptr %27, ptr %4, align 8, !tbaa !3
  %28 = load ptr, ptr %4, align 8, !tbaa !3
  %29 = getelementptr inbounds nuw %struct.pysqlite_state, ptr %28, i32 0, i32 8
  %30 = load ptr, ptr %29, align 8, !tbaa !52
  call void @PyErr_SetString(ptr noundef %30, ptr noundef @.str.11)
  store i32 0, ptr %2, align 4
  call void @llvm.lifetime.end.p0(i64 8, ptr %4) #6
  br label %32

31:                                               ; preds = %17
  store i32 1, ptr %2, align 4
  br label %32

32:                                               ; preds = %31, %22, %16
  %33 = load i32, ptr %2, align 4
  ret i32 %33
}

; Function Attrs: nounwind uwtable
define internal i64 @blob_length(ptr noundef %0) #0 {
  %2 = alloca i64, align 8
  %3 = alloca ptr, align 8
  %4 = alloca ptr, align 8
  %5 = alloca i32, align 4
  store ptr %0, ptr %3, align 8, !tbaa !22
  call void @llvm.lifetime.start.p0(i64 8, ptr %4) #6
  %6 = load ptr, ptr %3, align 8, !tbaa !22
  store ptr %6, ptr %4, align 8, !tbaa !3
  %7 = load ptr, ptr %4, align 8, !tbaa !3
  %8 = call i32 @check_blob(ptr noundef %7)
  %9 = icmp ne i32 %8, 0
  br i1 %9, label %11, label %10

10:                                               ; preds = %1
  store i64 -1, ptr %2, align 8
  store i32 1, ptr %5, align 4
  br label %17

11:                                               ; preds = %1
  %12 = load ptr, ptr %4, align 8, !tbaa !3
  %13 = getelementptr inbounds nuw %struct.pysqlite_Blob, ptr %12, i32 0, i32 2
  %14 = load ptr, ptr %13, align 8, !tbaa !25
  %15 = call i32 @sqlite3_blob_bytes(ptr noundef %14)
  %16 = sext i32 %15 to i64
  store i64 %16, ptr %2, align 8
  store i32 1, ptr %5, align 4
  br label %17

17:                                               ; preds = %11, %10
  call void @llvm.lifetime.end.p0(i64 8, ptr %4) #6
  %18 = load i64, ptr %2, align 8
  ret i64 %18
}