; Function Attrs: nounwind uwtable
define internal range(i64 -2147483648, 2147483648) i64 @blob_length(ptr noundef readonly captures(none) %0) #0 {
  %2 = getelementptr inbounds nuw i8, ptr %0, i64 16
  %3 = load ptr, ptr %2, align 8, !tbaa !39
  %4 = tail call i32 @pysqlite_check_connection(ptr noundef %3) #5
  %.not.i = icmp eq i32 %4, 0
  br i1 %.not.i, label %check_blob.exit.thread, label %5

5:                                                ; preds = %1
  %6 = load ptr, ptr %2, align 8, !tbaa !39
  %7 = tail call i32 @pysqlite_check_thread(ptr noundef %6) #5
  %.not5.i = icmp eq i32 %7, 0
  br i1 %.not5.i, label %check_blob.exit.thread, label %8

8:                                                ; preds = %5
  %9 = getelementptr inbounds nuw i8, ptr %0, i64 24
  %10 = load ptr, ptr %9, align 8, !tbaa !22
  %11 = icmp eq ptr %10, null
  br i1 %11, label %12, label %check_blob.exit

12:                                               ; preds = %8
  %13 = load ptr, ptr %2, align 8, !tbaa !39
  %14 = getelementptr inbounds nuw i8, ptr %13, i64 24
  %15 = load ptr, ptr %14, align 8, !tbaa !41
  %16 = getelementptr inbounds nuw i8, ptr %15, i64 64
  %17 = load ptr, ptr %16, align 8, !tbaa !42
  tail call void @PyErr_SetString(ptr noundef %17, ptr noundef nonnull @.str.11) #5
  br label %check_blob.exit.thread

check_blob.exit:                                  ; preds = %8
  %18 = tail call i32 @sqlite3_blob_bytes(ptr noundef nonnull %10) #5
  %19 = sext i32 %18 to i64
  br label %check_blob.exit.thread

check_blob.exit.thread:                           ; preds = %1, %5, %12, %check_blob.exit
  %.0 = phi i64 [ %19, %check_blob.exit ], [ -1, %12 ], [ -1, %5 ], [ -1, %1 ]
  ret i64 %.0
}